; ModuleID = '30/1529.c'
source_filename = "30/1529.c"
target datalayout = "e-m:e-p270:32:32-p271:32:32-p272:64:64-i64:64-f80:128-n8:16:32:64-S128"
target triple = "x86_64-pc-linux-gnu"

@.str = private unnamed_addr constant [3 x i8] c"%d\00", align 1
@.str.1 = private unnamed_addr constant [4 x i8] c"%d\0A\00", align 1

; Function Attrs: noinline nounwind uwtable
define dso_local i32 @main() #0 {
  %1 = alloca i32, align 4
  %2 = alloca i32, align 4
  %3 = alloca i32, align 4
  %4 = alloca i32, align 4
  %5 = alloca i32, align 4
  store i32 0, i32* %1, align 4
  store i32 0, i32* %4, align 4
  %6 = call i32 (i8*, ...) @__isoc99_scanf(i8* getelementptr inbounds ([3 x i8], [3 x i8]* @.str, i64 0, i64 0), i32* %5)
  store i32 1, i32* %2, align 4
  br label %7

7:                                                ; preds = %45, %0
  %8 = load i32, i32* %2, align 4
  %9 = load i32, i32* %5, align 4
  %10 = icmp sle i32 %8, %9
  br i1 %10, label %11, label %48

11:                                               ; preds = %7
  %12 = load i32, i32* %2, align 4
  %13 = srem i32 %12, 7
  %14 = icmp ne i32 %13, 0
  br i1 %14, label %15, label %44

15:                                               ; preds = %11
  %16 = load i32, i32* %2, align 4
  %17 = srem i32 %16, 10
  %18 = icmp ne i32 %17, 7
  br i1 %18, label %19, label %43

19:                                               ; preds = %15
  %20 = load i32, i32* %2, align 4
  %21 = icmp sge i32 %20, 10
  br i1 %21, label %22, label %33

22:                                               ; preds = %19
  %23 = load i32, i32* %2, align 4
  %24 = sdiv i32 %23, 10
  %25 = srem i32 %24, 7
  %26 = icmp ne i32 %25, 0
  br i1 %26, label %27, label %33

27:                                               ; preds = %22
  %28 = load i32, i32* %4, align 4
  %29 = load i32, i32* %2, align 4
  %30 = load i32, i32* %2, align 4
  %31 = mul nsw i32 %29, %30
  %32 = add nsw i32 %28, %31
  store i32 %32, i32* %4, align 4
  br label %33

33:                                               ; preds = %27, %22, %19
  %34 = load i32, i32* %2, align 4
  %35 = icmp slt i32 %34, 10
  br i1 %35, label %36, label %42

36:                                               ; preds = %33
  %37 = load i32, i32* %4, align 4
  %38 = load i32, i32* %2, align 4
  %39 = load i32, i32* %2, align 4
  %40 = mul nsw i32 %38, %39
  %41 = add nsw i32 %37, %40
  store i32 %41, i32* %4, align 4
  br label %42

42:                                               ; preds = %36, %33
  br label %43

43:                                               ; preds = %42, %15
  br label %44

44:                                               ; preds = %43, %11
  br label %45

45:                                               ; preds = %44
  %46 = load i32, i32* %2, align 4
  %47 = add nsw i32 %46, 1
  store i32 %47, i32* %2, align 4
  br label %7

48:                                               ; preds = %7
  %49 = load i32, i32* %4, align 4
  %50 = call i32 (i8*, ...) @printf(i8* getelementptr inbounds ([4 x i8], [4 x i8]* @.str.1, i64 0, i64 0), i32 %49)
  %51 = load i32, i32* %1, align 4
  ret i32 %51
}

declare dso_local i32 @__isoc99_scanf(i8*, ...) #1

declare dso_local i32 @printf(i8*, ...) #1


!llvm.module.flags = !{!0}
!llvm.ident = !{!1}

!0 = !{i32 1, !"wchar_size", i32 4}
!1 = !{!"clang version 10.0.0-4ubuntu1 "}
